target datalayout = "e-m:e-p270:32:32-p271:32:32-p272:64:64-i64:64-i128:128-f80:128-n8:16:32:64-S128"
target triple = "x86_64-pc-linux-gnu"

%struct.hwloc_obj = type { i32, ptr, i32, ptr, i64, ptr, i32, i32, ptr, ptr, ptr, i32, ptr, ptr, i32, ptr, ptr, ptr, i32, i32, ptr, i32, ptr, i32, ptr, ptr, ptr, ptr, ptr, ptr, i32, ptr, i64 }
%struct.hwloc_topology_support = type { ptr, ptr, ptr, ptr }
%struct.hwloc_topology_cpubind_support = type { i8, i8, i8, i8, i8, i8, i8, i8, i8, i8, i8 }
%struct.hwloc_topology_membind_support = type { i8, i8, i8, i8, i8, i8, i8, i8, i8, i8, i8, i8, i8, i8, i8 }

@.str.58 = private unnamed_addr constant [1 x i8] zeroinitializer, align 1
@.str.78 = private unnamed_addr constant [5 x i8] c"\0A%s\09\00", align 1
@.str.79 = private unnamed_addr constant [48 x i8] c"%sType: %s Number of child objects: %u%sName=%s\00", align 1
@.str.80 = private unnamed_addr constant [5 x i8] c"NULL\00", align 1
@.str.81 = private unnamed_addr constant [7 x i8] c"%s%s%s\00", align 1
@.str.82 = private unnamed_addr constant [16 x i8] c"%s%sCpuset:  %s\00", align 1
@.str.83 = private unnamed_addr constant [45 x i8] c"%s%sBind CPU proc:   %s%sBind CPU thread: %s\00", align 1
@.str.84 = private unnamed_addr constant [5 x i8] c"TRUE\00", align 1
@.str.85 = private unnamed_addr constant [6 x i8] c"FALSE\00", align 1
@.str.86 = private unnamed_addr constant [45 x i8] c"%s%sBind MEM proc:   %s%sBind MEM thread: %s\00", align 1
@.str.87 = private unnamed_addr constant [6 x i8] c"%s%s\0A\00", align 1
@.str.88 = private unnamed_addr constant [4 x i8] c"%s\09\00", align 1

; Function Attrs: nounwind uwtable
define internal void @print_hwloc_obj(ptr noundef %0, ptr noundef %1, ptr noundef %2, ptr noundef %3) #0 {
  %5 = alloca ptr, align 8
  %6 = alloca ptr, align 8
  %7 = alloca ptr, align 8
  %8 = alloca ptr, align 8
  %9 = alloca ptr, align 8
  %10 = alloca [1024 x i8], align 16
  %11 = alloca ptr, align 8
  %12 = alloca ptr, align 8
  %13 = alloca ptr, align 8
  %14 = alloca i32, align 4
  %15 = alloca ptr, align 8
  store ptr %0, ptr %5, align 8, !tbaa !28
  store ptr %1, ptr %6, align 8, !tbaa !26
  store ptr %2, ptr %7, align 8, !tbaa !3
  store ptr %3, ptr %8, align 8, !tbaa !8
  call void @llvm.lifetime.start.p0(i64 8, ptr %9) #10
  call void @llvm.lifetime.start.p0(i64 1024, ptr %10) #10
  call void @llvm.lifetime.start.p0(i64 8, ptr %11) #10
  call void @llvm.lifetime.start.p0(i64 8, ptr %12) #10
  call void @llvm.lifetime.start.p0(i64 8, ptr %13) #10
  call void @llvm.lifetime.start.p0(i64 4, ptr %14) #10
  call void @llvm.lifetime.start.p0(i64 8, ptr %15) #10
  %16 = getelementptr inbounds [1024 x i8], ptr %10, i64 0, i64 0
  %17 = load ptr, ptr %8, align 8, !tbaa !8
  %18 = call i32 @hwloc_obj_type_snprintf(ptr noundef %16, i64 noundef 1024, ptr noundef %17, i32 noundef 1)
  %19 = load ptr, ptr %6, align 8, !tbaa !26
  %20 = icmp eq ptr null, %19
  br i1 %20, label %21, label %22

21:                                               ; preds = %4
  br label %24

22:                                               ; preds = %4
  %23 = load ptr, ptr %6, align 8, !tbaa !26
  br label %24

24:                                               ; preds = %22, %21
  %25 = phi ptr [ @.str.58, %21 ], [ %23, %22 ]
  %26 = call i32 (ptr, ptr, ...) @pmix_asprintf(ptr noundef %13, ptr noundef @.str.78, ptr noundef %25)
  %27 = load ptr, ptr %6, align 8, !tbaa !26
  %28 = icmp eq ptr null, %27
  br i1 %28, label %29, label %30

29:                                               ; preds = %24
  br label %32

30:                                               ; preds = %24
  %31 = load ptr, ptr %6, align 8, !tbaa !26
  br label %32

32:                                               ; preds = %30, %29
  %33 = phi ptr [ @.str.58, %29 ], [ %31, %30 ]
  %34 = getelementptr inbounds [1024 x i8], ptr %10, i64 0, i64 0
  %35 = load ptr, ptr %8, align 8, !tbaa !8
  %36 = getelementptr inbounds nuw %struct.hwloc_obj, ptr %35, i32 0, i32 14
  %37 = load i32, ptr %36, align 8, !tbaa !139
  %38 = load ptr, ptr %13, align 8, !tbaa !26
  %39 = load ptr, ptr %8, align 8, !tbaa !8
  %40 = getelementptr inbounds nuw %struct.hwloc_obj, ptr %39, i32 0, i32 3
  %41 = load ptr, ptr %40, align 8, !tbaa !140
  %42 = icmp eq ptr null, %41
  br i1 %42, label %43, label %44

43:                                               ; preds = %32
  br label %48

44:                                               ; preds = %32
  %45 = load ptr, ptr %8, align 8, !tbaa !8
  %46 = getelementptr inbounds nuw %struct.hwloc_obj, ptr %45, i32 0, i32 3
  %47 = load ptr, ptr %46, align 8, !tbaa !140
  br label %48

48:                                               ; preds = %44, %43
  %49 = phi ptr [ @.str.80, %43 ], [ %47, %44 ]
  %50 = call i32 (ptr, ptr, ...) @pmix_asprintf(ptr noundef %11, ptr noundef @.str.79, ptr noundef %33, ptr noundef %34, i32 noundef %37, ptr noundef %38, ptr noundef %49)
  %51 = getelementptr inbounds [1024 x i8], ptr %10, i64 0, i64 0
  %52 = load ptr, ptr %8, align 8, !tbaa !8
  %53 = load ptr, ptr %13, align 8, !tbaa !26
  %54 = call i32 @hwloc_obj_attr_snprintf(ptr noundef %51, i64 noundef 1024, ptr noundef %52, ptr noundef %53, i32 noundef 1)
  %55 = icmp slt i32 0, %54
  br i1 %55, label %56, label %63

56:                                               ; preds = %48
  %57 = load ptr, ptr %11, align 8, !tbaa !26
  %58 = load ptr, ptr %13, align 8, !tbaa !26
  %59 = getelementptr inbounds [1024 x i8], ptr %10, i64 0, i64 0
  %60 = call i32 (ptr, ptr, ...) @pmix_asprintf(ptr noundef %12, ptr noundef @.str.81, ptr noundef %57, ptr noundef %58, ptr noundef %59)
  %61 = load ptr, ptr %11, align 8, !tbaa !26
  call void @free(ptr noundef %61) #10
  %62 = load ptr, ptr %12, align 8, !tbaa !26
  store ptr %62, ptr %11, align 8, !tbaa !26
  br label %63

63:                                               ; preds = %56, %48
  %64 = load ptr, ptr %8, align 8, !tbaa !8
  %65 = getelementptr inbounds nuw %struct.hwloc_obj, ptr %64, i32 0, i32 25
  %66 = load ptr, ptr %65, align 8, !tbaa !10
  %67 = icmp ne ptr null, %66
  br i1 %67, label %68, label %80

68:                                               ; preds = %63
  %69 = getelementptr inbounds [1024 x i8], ptr %10, i64 0, i64 0
  %70 = load ptr, ptr %8, align 8, !tbaa !8
  %71 = getelementptr inbounds nuw %struct.hwloc_obj, ptr %70, i32 0, i32 25
  %72 = load ptr, ptr %71, align 8, !tbaa !10
  %73 = call i32 @hwloc_bitmap_snprintf(ptr noundef %69, i64 noundef 2048, ptr noundef %72)
  %74 = load ptr, ptr %11, align 8, !tbaa !26
  %75 = load ptr, ptr %13, align 8, !tbaa !26
  %76 = getelementptr inbounds [1024 x i8], ptr %10, i64 0, i64 0
  %77 = call i32 (ptr, ptr, ...) @pmix_asprintf(ptr noundef %12, ptr noundef @.str.82, ptr noundef %74, ptr noundef %75, ptr noundef %76)
  %78 = load ptr, ptr %11, align 8, !tbaa !26
  call void @free(ptr noundef %78) #10
  %79 = load ptr, ptr %12, align 8, !tbaa !26
  store ptr %79, ptr %11, align 8, !tbaa !26
  br label %80

80:                                               ; preds = %68, %63
  %81 = load ptr, ptr %8, align 8, !tbaa !8
  %82 = getelementptr inbounds nuw %struct.hwloc_obj, ptr %81, i32 0, i32 0
  %83 = load i32, ptr %82, align 8, !tbaa !96
  %84 = icmp eq i32 0, %83
  br i1 %84, label %85, label %132

85:                                               ; preds = %80
  %86 = load ptr, ptr %7, align 8, !tbaa !3
  %87 = call ptr @hwloc_topology_get_support(ptr noundef %86)
  store ptr %87, ptr %15, align 8, !tbaa !75
  %88 = load ptr, ptr %11, align 8, !tbaa !26
  %89 = load ptr, ptr %13, align 8, !tbaa !26
  %90 = load ptr, ptr %15, align 8, !tbaa !75
  %91 = getelementptr inbounds nuw %struct.hwloc_topology_support, ptr %90, i32 0, i32 1
  %92 = load ptr, ptr %91, align 8, !tbaa !77
  %93 = getelementptr inbounds nuw %struct.hwloc_topology_cpubind_support, ptr %92, i32 0, i32 0
  %94 = load i8, ptr %93, align 1, !tbaa !83
  %95 = zext i8 %94 to i32
  %96 = icmp ne i32 %95, 0
  %97 = select i1 %96, ptr @.str.84, ptr @.str.85
  %98 = load ptr, ptr %13, align 8, !tbaa !26
  %99 = load ptr, ptr %15, align 8, !tbaa !75
  %100 = getelementptr inbounds nuw %struct.hwloc_topology_support, ptr %99, i32 0, i32 1
  %101 = load ptr, ptr %100, align 8, !tbaa !77
  %102 = getelementptr inbounds nuw %struct.hwloc_topology_cpubind_support, ptr %101, i32 0, i32 4
  %103 = load i8, ptr %102, align 1, !tbaa !141
  %104 = zext i8 %103 to i32
  %105 = icmp ne i32 %104, 0
  %106 = select i1 %105, ptr @.str.84, ptr @.str.85
  %107 = call i32 (ptr, ptr, ...) @pmix_asprintf(ptr noundef %12, ptr noundef @.str.83, ptr noundef %88, ptr noundef %89, ptr noundef %97, ptr noundef %98, ptr noundef %106)
  %108 = load ptr, ptr %11, align 8, !tbaa !26
  call void @free(ptr noundef %108) #10
  %109 = load ptr, ptr %12, align 8, !tbaa !26
  store ptr %109, ptr %11, align 8, !tbaa !26
  %110 = load ptr, ptr %11, align 8, !tbaa !26
  %111 = load ptr, ptr %13, align 8, !tbaa !26
  %112 = load ptr, ptr %15, align 8, !tbaa !75
  %113 = getelementptr inbounds nuw %struct.hwloc_topology_support, ptr %112, i32 0, i32 2
  %114 = load ptr, ptr %113, align 8, !tbaa !85
  %115 = getelementptr inbounds nuw %struct.hwloc_topology_membind_support, ptr %114, i32 0, i32 0
  %116 = load i8, ptr %115, align 1, !tbaa !86
  %117 = zext i8 %116 to i32
  %118 = icmp ne i32 %117, 0
  %119 = select i1 %118, ptr @.str.84, ptr @.str.85
  %120 = load ptr, ptr %13, align 8, !tbaa !26
  %121 = load ptr, ptr %15, align 8, !tbaa !75
  %122 = getelementptr inbounds nuw %struct.hwloc_topology_support, ptr %121, i32 0, i32 2
  %123 = load ptr, ptr %122, align 8, !tbaa !85
  %124 = getelementptr inbounds nuw %struct.hwloc_topology_membind_support, ptr %123, i32 0, i32 4
  %125 = load i8, ptr %124, align 1, !tbaa !142
  %126 = zext i8 %125 to i32
  %127 = icmp ne i32 %126, 0
  %128 = select i1 %127, ptr @.str.84, ptr @.str.85
  %129 = call i32 (ptr, ptr, ...) @pmix_asprintf(ptr noundef %12, ptr noundef @.str.86, ptr noundef %110, ptr noundef %111, ptr noundef %119, ptr noundef %120, ptr noundef %128)
  %130 = load ptr, ptr %11, align 8, !tbaa !26
  call void @free(ptr noundef %130) #10
  %131 = load ptr, ptr %12, align 8, !tbaa !26
  store ptr %131, ptr %11, align 8, !tbaa !26
  br label %132

132:                                              ; preds = %85, %80
  %133 = load ptr, ptr %5, align 8, !tbaa !28
  %134 = load ptr, ptr %133, align 8, !tbaa !26
  %135 = icmp eq ptr null, %134
  br i1 %135, label %136, label %137

136:                                              ; preds = %132
  br label %140

137:                                              ; preds = %132
  %138 = load ptr, ptr %5, align 8, !tbaa !28
  %139 = load ptr, ptr %138, align 8, !tbaa !26
  br label %140

140:                                              ; preds = %137, %136
  %141 = phi ptr [ @.str.58, %136 ], [ %139, %137 ]
  %142 = load ptr, ptr %11, align 8, !tbaa !26
  %143 = call i32 (ptr, ptr, ...) @pmix_asprintf(ptr noundef %12, ptr noundef @.str.87, ptr noundef %141, ptr noundef %142)
  %144 = load ptr, ptr %11, align 8, !tbaa !26
  call void @free(ptr noundef %144) #10
  %145 = load ptr, ptr %13, align 8, !tbaa !26
  call void @free(ptr noundef %145) #10
  %146 = load ptr, ptr %6, align 8, !tbaa !26
  %147 = icmp eq ptr null, %146
  br i1 %147, label %148, label %149

148:                                              ; preds = %140
  br label %151

149:                                              ; preds = %140
  %150 = load ptr, ptr %6, align 8, !tbaa !26
  br label %151

151:                                              ; preds = %149, %148
  %152 = phi ptr [ @.str.58, %148 ], [ %150, %149 ]
  %153 = call i32 (ptr, ptr, ...) @pmix_asprintf(ptr noundef %13, ptr noundef @.str.88, ptr noundef %152)
  store i32 0, ptr %14, align 4, !tbaa !19
  br label %154

154:                                              ; preds = %171, %151
  %155 = load i32, ptr %14, align 4, !tbaa !19
  %156 = load ptr, ptr %8, align 8, !tbaa !8
  %157 = getelementptr inbounds nuw %struct.hwloc_obj, ptr %156, i32 0, i32 14
  %158 = load i32, ptr %157, align 8, !tbaa !139
  %159 = icmp ult i32 %155, %158
  br i1 %159, label %160, label %174

160:                                              ; preds = %154
  %161 = load ptr, ptr %8, align 8, !tbaa !8
  %162 = getelementptr inbounds nuw %struct.hwloc_obj, ptr %161, i32 0, i32 15
  %163 = load ptr, ptr %162, align 8, !tbaa !143
  %164 = load i32, ptr %14, align 4, !tbaa !19
  %165 = zext i32 %164 to i64
  %166 = getelementptr inbounds nuw ptr, ptr %163, i64 %165
  %167 = load ptr, ptr %166, align 8, !tbaa !8
  store ptr %167, ptr %9, align 8, !tbaa !8
  %168 = load ptr, ptr %13, align 8, !tbaa !26
  %169 = load ptr, ptr %7, align 8, !tbaa !3
  %170 = load ptr, ptr %9, align 8, !tbaa !8
  call void @print_hwloc_obj(ptr noundef %12, ptr noundef %168, ptr noundef %169, ptr noundef %170)
  br label %171

171:                                              ; preds = %160
  %172 = load i32, ptr %14, align 4, !tbaa !19
  %173 = add i32 %172, 1
  store i32 %173, ptr %14, align 4, !tbaa !19
  br label %154, !llvm.loop !144

174:                                              ; preds = %154
  %175 = load ptr, ptr %13, align 8, !tbaa !26
  call void @free(ptr noundef %175) #10
  %176 = load ptr, ptr %5, align 8, !tbaa !28
  %177 = load ptr, ptr %176, align 8, !tbaa !26
  %178 = icmp ne ptr null, %177
  br i1 %178, label %179, label %182

179:                                              ; preds = %174
  %180 = load ptr, ptr %5, align 8, !tbaa !28
  %181 = load ptr, ptr %180, align 8, !tbaa !26
  call void @free(ptr noundef %181) #10
  br label %182

182:                                              ; preds = %179, %174
  %183 = load ptr, ptr %12, align 8, !tbaa !26
  %184 = load ptr, ptr %5, align 8, !tbaa !28
  store ptr %183, ptr %184, align 8, !tbaa !26
  call void @llvm.lifetime.end.p0(i64 8, ptr %15) #10
  call void @llvm.lifetime.end.p0(i64 4, ptr %14) #10
  call void @llvm.lifetime.end.p0(i64 8, ptr %13) #10
  call void @llvm.lifetime.end.p0(i64 8, ptr %12) #10
  call void @llvm.lifetime.end.p0(i64 8, ptr %11) #10
  call void @llvm.lifetime.end.p0(i64 1024, ptr %10) #10
  call void @llvm.lifetime.end.p0(i64 8, ptr %9) #10
  ret void
}